(lp1
(lp2
(lp3
S'02'
p4
aS''
a(lp5
(lp6
S'WordPhrases'
p7
aS'021010101019'
p8
aS'1'
aaaS'Spotlight Spotter'
p9
aS'Entity Recognition'
p10
aS'Dictionairy Lookup'
p11
aS'Brute Force Search'
p12
aS'????'
p13
a(lp14
aS'NoEnsemble'
p15
aaVyankees
p16
aS'23'
p17
aS'30'
p18
aF0.5
aa(lp19
g3
aVscoring
p20
aS'31'
p21
aS'38'
p22
aF0.5
aa(lp23
g3
aVruns
p24
aS'42'
p25
aS'46'
p26
aF0.5
aa(lp27
g3
aVinning
p28
aS'60'
p29
aS'66'
p30
aF0.5
aa(lp31
g3
aV-0
p32
aS'73'
p33
aS'75'
p34
aF0.5
aa.