(lp1
(lp2
(lp3
S'02'
p4
aS''
a(lp5
(lp6
S'WordPhrases'
p7
aS'021010101019'
p8
aS'1'
aaaS'Spotlight Spotter'
p9
aS'Entity Recognition'
p10
aS'Dictionairy Lookup'
p11
aS'Brute Force Search'
p12
aS'????'
p13
a(lp14
aS'NoEnsemble'
p15
aaVwrong
p16
aS'30'
p17
aS'35'
p18
aF0.5
aa(lp19
g3
aVsmart
p20
aS'89'
p21
aS'94'
p22
aF0.5
aa(lp23
g3
aVprotect
p24
aS'102'
p25
aS'109'
p26
aF0.5
aa(lp27
g3
aVcase
p28
aS'115'
p29
aS'119'
p30
aF0.5
aa.