(lp1
(lp2
(lp3
S'01'
p4
aS''
a(lp5
(lp6
S'StanfordNEROutput'
p7
aS'011010101015'
p8
aS'1'
aa(lp9
S'IllinoisNETOutput'
p10
aS'011010101016'
p11
aS'1'
aa(lp12
S'BalieOutput'
p13
aS'011010101017'
p14
aS'1'
aa(lp15
S'OpenNLPOutput'
p16
aS'011010101018'
p17
aS'1'
aaaS'FOX'
p18
aS'Entity Recognition'
p19
aS'(Non-) Linear Combination of NER with MLP'
p20
aS'Whatever'
p21
aS'Training Sets of Base Learners'
p22
a(lp23
S'04'
p24
aaS'Ensemble'
p25
aaa.