(lp1
(lp2
(lp3
S'02'
p4
aS''
a(lp5
(lp6
S'WordPhrases'
p7
aS'021010101019'
p8
aS'1'
aaaS'Spotlight Spotter'
p9
aS'Entity Recognition'
p10
aS'Dictionairy Lookup'
p11
aS'Brute Force Search'
p12
aS'????'
p13
a(lp14
aS'NoEnsemble'
p15
aaVate
p16
aS'2'
aS'5'
aF0.5
aa(lp17
g3
aVcouple
p18
aS'30'
p19
aS'36'
p20
aF0.5
aa(lp21
g3
aVguess
p22
aS'47'
p23
aS'52'
p24
aF0.5
aa(lp25
g3
aVholiday season
p26
aS'79'
p27
aS'93'
p28
aF0.5
aa.